target datalayout = "e-m:e-p270:32:32-p271:32:32-p272:64:64-i64:64-i128:128-f80:128-n8:16:32:64-S128"
target triple = "x86_64-pc-linux-gnu"

%struct.mime_header_st = type { ptr, ptr, ptr }
%struct.mime_param_st = type { ptr, ptr }

@.str = private unnamed_addr constant [34 x i8] c"../openssl/crypto/asn1/asn_mime.c\00", align 1

; Function Attrs: inlinehint nounwind uwtable
define internal i32 @sk_MIME_PARAM_push(ptr noundef %0, ptr noundef %1) #3 {
  %3 = alloca ptr, align 8
  %4 = alloca ptr, align 8
  store ptr %0, ptr %3, align 8, !tbaa !88
  store ptr %1, ptr %4, align 8, !tbaa !65
  %5 = load ptr, ptr %3, align 8, !tbaa !88
  %6 = load ptr, ptr %4, align 8, !tbaa !65
  %7 = call i32 @OPENSSL_sk_push(ptr noundef %5, ptr noundef %6)
  ret i32 %7
}

; Function Attrs: nounwind uwtable
define internal i32 @mime_hdr_addparam(ptr noundef %0, ptr noundef %1, ptr noundef %2) #0 {
  %4 = alloca i32, align 4
  %5 = alloca ptr, align 8
  %6 = alloca ptr, align 8
  %7 = alloca ptr, align 8
  %8 = alloca ptr, align 8
  %9 = alloca ptr, align 8
  %10 = alloca ptr, align 8
  %11 = alloca ptr, align 8
  %12 = alloca i32, align 4
  store ptr %0, ptr %5, align 8, !tbaa !60
  store ptr %1, ptr %6, align 8, !tbaa !20
  store ptr %2, ptr %7, align 8, !tbaa !20
  call void @llvm.lifetime.start.p0(i64 8, ptr %8) #5
  store ptr null, ptr %8, align 8, !tbaa !20
  call void @llvm.lifetime.start.p0(i64 8, ptr %9) #5
  store ptr null, ptr %9, align 8, !tbaa !20
  call void @llvm.lifetime.start.p0(i64 8, ptr %10) #5
  call void @llvm.lifetime.start.p0(i64 8, ptr %11) #5
  store ptr null, ptr %11, align 8, !tbaa !65
  %13 = load ptr, ptr %6, align 8, !tbaa !20
  %14 = icmp ne ptr %13, null
  br i1 %14, label %15, label %38

15:                                               ; preds = %3
  %16 = load ptr, ptr %6, align 8, !tbaa !20
  %17 = call noalias ptr @CRYPTO_strdup(ptr noundef %16, ptr noundef @.str, i32 noundef 896)
  store ptr %17, ptr %8, align 8, !tbaa !20
  %18 = load ptr, ptr %8, align 8, !tbaa !20
  %19 = icmp ne ptr %18, null
  br i1 %19, label %21, label %20

20:                                               ; preds = %15
  br label %68

21:                                               ; preds = %15
  %22 = load ptr, ptr %8, align 8, !tbaa !20
  store ptr %22, ptr %10, align 8, !tbaa !20
  br label %23

23:                                               ; preds = %34, %21
  %24 = load ptr, ptr %10, align 8, !tbaa !20
  %25 = load i8, ptr %24, align 1, !tbaa !17
  %26 = icmp ne i8 %25, 0
  br i1 %26, label %27, label %37

27:                                               ; preds = %23
  %28 = load ptr, ptr %10, align 8, !tbaa !20
  %29 = load i8, ptr %28, align 1, !tbaa !17
  %30 = sext i8 %29 to i32
  %31 = call i32 @ossl_tolower(i32 noundef %30)
  %32 = trunc i32 %31 to i8
  %33 = load ptr, ptr %10, align 8, !tbaa !20
  store i8 %32, ptr %33, align 1, !tbaa !17
  br label %34

34:                                               ; preds = %27
  %35 = load ptr, ptr %10, align 8, !tbaa !20
  %36 = getelementptr inbounds nuw i8, ptr %35, i32 1
  store ptr %36, ptr %10, align 8, !tbaa !20
  br label %23, !llvm.loop !87

37:                                               ; preds = %23
  br label %38

38:                                               ; preds = %37, %3
  %39 = load ptr, ptr %7, align 8, !tbaa !20
  %40 = icmp ne ptr %39, null
  br i1 %40, label %41, label %48

41:                                               ; preds = %38
  %42 = load ptr, ptr %7, align 8, !tbaa !20
  %43 = call noalias ptr @CRYPTO_strdup(ptr noundef %42, ptr noundef @.str, i32 noundef 903)
  store ptr %43, ptr %9, align 8, !tbaa !20
  %44 = load ptr, ptr %9, align 8, !tbaa !20
  %45 = icmp ne ptr %44, null
  br i1 %45, label %47, label %46

46:                                               ; preds = %41
  br label %68

47:                                               ; preds = %41
  br label %48

48:                                               ; preds = %47, %38
  %49 = call noalias ptr @CRYPTO_malloc(i64 noundef 16, ptr noundef @.str, i32 noundef 908)
  store ptr %49, ptr %11, align 8, !tbaa !65
  %50 = load ptr, ptr %11, align 8, !tbaa !65
  %51 = icmp eq ptr %50, null
  br i1 %51, label %52, label %53

52:                                               ; preds = %48
  br label %68

53:                                               ; preds = %48
  %54 = load ptr, ptr %8, align 8, !tbaa !20
  %55 = load ptr, ptr %11, align 8, !tbaa !65
  %56 = getelementptr inbounds nuw %struct.mime_param_st, ptr %55, i32 0, i32 0
  store ptr %54, ptr %56, align 8, !tbaa !75
  %57 = load ptr, ptr %9, align 8, !tbaa !20
  %58 = load ptr, ptr %11, align 8, !tbaa !65
  %59 = getelementptr inbounds nuw %struct.mime_param_st, ptr %58, i32 0, i32 1
  store ptr %57, ptr %59, align 8, !tbaa !67
  %60 = load ptr, ptr %5, align 8, !tbaa !60
  %61 = getelementptr inbounds nuw %struct.mime_header_st, ptr %60, i32 0, i32 2
  %62 = load ptr, ptr %61, align 8, !tbaa !71
  %63 = load ptr, ptr %11, align 8, !tbaa !65
  %64 = call i32 @sk_MIME_PARAM_push(ptr noundef %62, ptr noundef %63)
  %65 = icmp ne i32 %64, 0
  br i1 %65, label %67, label %66

66:                                               ; preds = %53
  br label %68

67:                                               ; preds = %53
  store i32 1, ptr %4, align 4
  store i32 1, ptr %12, align 4
  br label %72

68:                                               ; preds = %66, %52, %46, %20
  %69 = load ptr, ptr %8, align 8, !tbaa !20
  call void @CRYPTO_free(ptr noundef %69, ptr noundef @.str, i32 noundef 917)
  %70 = load ptr, ptr %9, align 8, !tbaa !20
  call void @CRYPTO_free(ptr noundef %70, ptr noundef @.str, i32 noundef 918)
  %71 = load ptr, ptr %11, align 8, !tbaa !65
  call void @CRYPTO_free(ptr noundef %71, ptr noundef @.str, i32 noundef 919)
  store i32 0, ptr %4, align 4
  store i32 1, ptr %12, align 4
  br label %72

72:                                               ; preds = %68, %67
  call void @llvm.lifetime.end.p0(i64 8, ptr %11) #5
  call void @llvm.lifetime.end.p0(i64 8, ptr %10) #5
  call void @llvm.lifetime.end.p0(i64 8, ptr %9) #5
  call void @llvm.lifetime.end.p0(i64 8, ptr %8) #5
  %73 = load i32, ptr %4, align 4
  ret i32 %73
}