; Function Attrs: nounwind uwtable
define internal fastcc void @mime_hdr_addparam(ptr noundef readonly captures(none) %0, ptr noundef %1, ptr noundef %2) unnamed_addr #0 {
  %.not = icmp eq ptr %1, null
  br i1 %.not, label %.loopexit, label %4

4:                                                ; preds = %3
  %5 = tail call noalias ptr @CRYPTO_strdup(ptr noundef nonnull %1, ptr noundef nonnull @.str, i32 noundef 896) #6
  %.not35 = icmp eq ptr %5, null
  br i1 %.not35, label %23, label %.preheader

.preheader:                                       ; preds = %4
  %6 = load i8, ptr %5, align 1, !tbaa !6
  %.not3640 = icmp eq i8 %6, 0
  br i1 %.not3640, label %.loopexit, label %.lr.ph

.lr.ph:                                           ; preds = %.preheader, %.lr.ph
  %7 = phi i8 [ %12, %.lr.ph ], [ %6, %.preheader ]
  %.02141 = phi ptr [ %11, %.lr.ph ], [ %5, %.preheader ]
  %8 = sext i8 %7 to i32
  %9 = tail call i32 @ossl_tolower(i32 noundef %8) #6
  %10 = trunc i32 %9 to i8
  store i8 %10, ptr %.02141, align 1, !tbaa !6
  %11 = getelementptr inbounds nuw i8, ptr %.02141, i64 1
  %12 = load i8, ptr %11, align 1, !tbaa !6
  %.not36 = icmp eq i8 %12, 0
  br i1 %.not36, label %.loopexit, label %.lr.ph, !llvm.loop !60

.loopexit:                                        ; preds = %.lr.ph, %.preheader, %3
  %.023 = phi ptr [ null, %3 ], [ %5, %.preheader ], [ %5, %.lr.ph ]
  %.not37 = icmp eq ptr %2, null
  br i1 %.not37, label %15, label %13

13:                                               ; preds = %.loopexit
  %14 = tail call noalias ptr @CRYPTO_strdup(ptr noundef nonnull %2, ptr noundef nonnull @.str, i32 noundef 903) #6
  %.not38 = icmp eq ptr %14, null
  br i1 %.not38, label %23, label %15

15:                                               ; preds = %13, %.loopexit
  %.1 = phi ptr [ %14, %13 ], [ null, %.loopexit ]
  %16 = tail call noalias ptr @CRYPTO_malloc(i64 noundef 16, ptr noundef nonnull @.str, i32 noundef 908) #6
  %17 = icmp eq ptr %16, null
  br i1 %17, label %23, label %18

18:                                               ; preds = %15
  store ptr %.023, ptr %16, align 8, !tbaa !45
  %19 = getelementptr inbounds nuw i8, ptr %16, i64 8
  store ptr %.1, ptr %19, align 8, !tbaa !47
  %20 = getelementptr inbounds nuw i8, ptr %0, i64 16
  %21 = load ptr, ptr %20, align 8, !tbaa !48
  %22 = tail call i32 @OPENSSL_sk_push(ptr noundef %21, ptr noundef nonnull %16) #6
  %.not39 = icmp eq i32 %22, 0
  br i1 %.not39, label %23, label %24

23:                                               ; preds = %18, %15, %13, %4
  %.124 = phi ptr [ %.023, %15 ], [ %.023, %18 ], [ %.023, %13 ], [ null, %4 ]
  %.022 = phi ptr [ %.1, %15 ], [ %.1, %18 ], [ null, %13 ], [ null, %4 ]
  %.0 = phi ptr [ null, %15 ], [ %16, %18 ], [ null, %13 ], [ null, %4 ]
  tail call void @CRYPTO_free(ptr noundef %.124, ptr noundef nonnull @.str, i32 noundef 917) #6
  tail call void @CRYPTO_free(ptr noundef %.022, ptr noundef nonnull @.str, i32 noundef 918) #6
  tail call void @CRYPTO_free(ptr noundef %.0, ptr noundef nonnull @.str, i32 noundef 919) #6
  br label %24

24:                                               ; preds = %18, %23
  ret void
}